target datalayout = "e-m:e-p270:32:32-p271:32:32-p272:64:64-i64:64-i128:128-f80:128-n8:16:32:64-S128"
target triple = "x86_64-pc-linux-gnu"

%"struct.std::__detail::_Hash_node_base" = type { ptr }
%"struct.std::__detail::_Prime_rehash_policy" = type { float, i64 }
%"class.cvc5::internal::NodeTemplate" = type { ptr }
%"class.std::unordered_set.56" = type { %"class.std::_Hashtable.57" }
%"class.std::_Hashtable.57" = type { ptr, i64, %"struct.std::__detail::_Hash_node_base", i64, %"struct.std::__detail::_Prime_rehash_policy", ptr }

; Function Attrs: mustprogress nounwind uwtable
define linkonce_odr hidden void @_ZNSt15__new_allocatorINSt8__detail10_Hash_nodeIN4cvc58internal12NodeTemplateILb1EEELb1EEEEC2Ev(ptr noundef nonnull align 1 dereferenceable(1) %0) unnamed_addr #5 comdat align 2 {
  %2 = alloca ptr, align 8
  store ptr %0, ptr %2, align 8, !tbaa !310
  ret void
}

; Function Attrs: mustprogress nounwind uwtable
define linkonce_odr hidden void @_ZNSaINSt8__detail10_Hash_nodeIN4cvc58internal12NodeTemplateILb1EEELb1EEEEC2Ev(ptr noundef nonnull align 1 dereferenceable(1) %0) unnamed_addr #5 comdat align 2 {
  %2 = alloca ptr, align 8
  store ptr %0, ptr %2, align 8, !tbaa !308
  %3 = load ptr, ptr %2, align 8
  call void @_ZNSt15__new_allocatorINSt8__detail10_Hash_nodeIN4cvc58internal12NodeTemplateILb1EEELb1EEEEC2Ev(ptr noundef nonnull align 1 dereferenceable(1) %3) #3
  ret void
}

; Function Attrs: mustprogress nounwind uwtable
define linkonce_odr hidden void @_ZNSt8__detail21_Hashtable_ebo_helperILi1ESt4hashIN4cvc58internal12NodeTemplateILb1EEEELb1EEC2Ev(ptr noundef nonnull align 1 dereferenceable(1) %0) unnamed_addr #5 comdat align 2 {
  %2 = alloca ptr, align 8
  store ptr %0, ptr %2, align 8, !tbaa !304
  ret void
}

; Function Attrs: mustprogress nounwind uwtable
define linkonce_odr hidden void @_ZNSt8__detail21_Hashtable_ebo_helperILi0ESaINS_10_Hash_nodeIN4cvc58internal12NodeTemplateILb1EEELb1EEEELb1EEC2Ev(ptr noundef nonnull align 1 dereferenceable(1) %0) unnamed_addr #5 comdat align 2 {
  %2 = alloca ptr, align 8
  store ptr %0, ptr %2, align 8, !tbaa !306
  %3 = load ptr, ptr %2, align 8
  call void @_ZNSaINSt8__detail10_Hash_nodeIN4cvc58internal12NodeTemplateILb1EEELb1EEEEC2Ev(ptr noundef nonnull align 1 dereferenceable(1) %3) #3
  ret void
}

; Function Attrs: mustprogress nounwind uwtable
define linkonce_odr hidden void @_ZNSt8__detail21_Hashtable_ebo_helperILi0ESt8equal_toIN4cvc58internal12NodeTemplateILb1EEEELb1EEC2Ev(ptr noundef nonnull align 1 dereferenceable(1) %0) unnamed_addr #5 comdat align 2 {
  %2 = alloca ptr, align 8
  store ptr %0, ptr %2, align 8, !tbaa !302
  ret void
}

; Function Attrs: mustprogress nounwind uwtable
define linkonce_odr hidden void @_ZNSt8__detail15_Hash_code_baseIN4cvc58internal12NodeTemplateILb1EEES4_NS_9_IdentityESt4hashIS4_ENS_18_Mod_range_hashingENS_20_Default_ranged_hashELb1EEC2Ev(ptr noundef nonnull align 1 dereferenceable(1) %0) unnamed_addr #5 comdat align 2 {
  %2 = alloca ptr, align 8
  store ptr %0, ptr %2, align 8, !tbaa !300
  %3 = load ptr, ptr %2, align 8
  call void @_ZNSt8__detail21_Hashtable_ebo_helperILi1ESt4hashIN4cvc58internal12NodeTemplateILb1EEEELb1EEC2Ev(ptr noundef nonnull align 1 dereferenceable(1) %3) #3
  ret void
}

; Function Attrs: mustprogress nounwind uwtable
define linkonce_odr hidden void @_ZNSt8__detail20_Prime_rehash_policyC2Ef(ptr noundef nonnull align 8 dereferenceable(16) %0, float noundef %1) unnamed_addr #5 comdat align 2 {
  %3 = alloca ptr, align 8
  %4 = alloca float, align 4
  store ptr %0, ptr %3, align 8, !tbaa !222
  store float %1, ptr %4, align 4, !tbaa !224
  %5 = load ptr, ptr %3, align 8
  %6 = getelementptr inbounds nuw %"struct.std::__detail::_Prime_rehash_policy", ptr %5, i32 0, i32 0
  %7 = load float, ptr %4, align 4, !tbaa !224
  store float %7, ptr %6, align 8, !tbaa !225
  %8 = getelementptr inbounds nuw %"struct.std::__detail::_Prime_rehash_policy", ptr %5, i32 0, i32 1
  store i64 0, ptr %8, align 8, !tbaa !226
  ret void
}

; Function Attrs: mustprogress nounwind uwtable
define linkonce_odr hidden void @_ZNSt8__detail15_Hash_node_baseC2Ev(ptr noundef nonnull align 8 dereferenceable(8) %0) unnamed_addr #5 comdat align 2 {
  %2 = alloca ptr, align 8
  store ptr %0, ptr %2, align 8, !tbaa !220
  %3 = load ptr, ptr %2, align 8
  %4 = getelementptr inbounds nuw %"struct.std::__detail::_Hash_node_base", ptr %3, i32 0, i32 0
  store ptr null, ptr %4, align 8, !tbaa !221
  ret void
}

; Function Attrs: mustprogress nounwind uwtable
define linkonce_odr hidden void @_ZNSt8__detail16_Hashtable_allocISaINS_10_Hash_nodeIN4cvc58internal12NodeTemplateILb1EEELb1EEEEEC2Ev(ptr noundef nonnull align 1 dereferenceable(1) %0) unnamed_addr #5 comdat align 2 {
  %2 = alloca ptr, align 8
  store ptr %0, ptr %2, align 8, !tbaa !298
  %3 = load ptr, ptr %2, align 8
  call void @_ZNSt8__detail21_Hashtable_ebo_helperILi0ESaINS_10_Hash_nodeIN4cvc58internal12NodeTemplateILb1EEELb1EEEELb1EEC2Ev(ptr noundef nonnull align 1 dereferenceable(1) %3) #3
  ret void
}

; Function Attrs: mustprogress nounwind uwtable
define linkonce_odr hidden void @_ZNSt8__detail15_Hashtable_baseIN4cvc58internal12NodeTemplateILb1EEES4_NS_9_IdentityESt8equal_toIS4_ESt4hashIS4_ENS_18_Mod_range_hashingENS_20_Default_ranged_hashENS_17_Hashtable_traitsILb1ELb1ELb1EEEEC2Ev(ptr noundef nonnull align 1 dereferenceable(1) %0) unnamed_addr #5 comdat align 2 {
  %2 = alloca ptr, align 8
  store ptr %0, ptr %2, align 8, !tbaa !296
  %3 = load ptr, ptr %2, align 8
  call void @_ZNSt8__detail15_Hash_code_baseIN4cvc58internal12NodeTemplateILb1EEES4_NS_9_IdentityESt4hashIS4_ENS_18_Mod_range_hashingENS_20_Default_ranged_hashELb1EEC2Ev(ptr noundef nonnull align 1 dereferenceable(1) %3) #3
  call void @_ZNSt8__detail21_Hashtable_ebo_helperILi0ESt8equal_toIN4cvc58internal12NodeTemplateILb1EEEELb1EEC2Ev(ptr noundef nonnull align 1 dereferenceable(1) %3) #3
  ret void
}

; Function Attrs: mustprogress nounwind uwtable
define linkonce_odr hidden void @_ZNSt10_HashtableIN4cvc58internal12NodeTemplateILb1EEES3_SaIS3_ENSt8__detail9_IdentityESt8equal_toIS3_ESt4hashIS3_ENS5_18_Mod_range_hashingENS5_20_Default_ranged_hashENS5_20_Prime_rehash_policyENS5_17_Hashtable_traitsILb1ELb1ELb1EEEEC2Ev(ptr noundef nonnull align 8 dereferenceable(56) %0) unnamed_addr #5 comdat align 2 {
  %2 = alloca ptr, align 8
  store ptr %0, ptr %2, align 8, !tbaa !289
  %3 = load ptr, ptr %2, align 8
  call void @_ZNSt8__detail15_Hashtable_baseIN4cvc58internal12NodeTemplateILb1EEES4_NS_9_IdentityESt8equal_toIS4_ESt4hashIS4_ENS_18_Mod_range_hashingENS_20_Default_ranged_hashENS_17_Hashtable_traitsILb1ELb1ELb1EEEEC2Ev(ptr noundef nonnull align 1 dereferenceable(1) %3) #3
  call void @_ZNSt8__detail16_Hashtable_allocISaINS_10_Hash_nodeIN4cvc58internal12NodeTemplateILb1EEELb1EEEEEC2Ev(ptr noundef nonnull align 1 dereferenceable(1) %3) #3
  %4 = getelementptr inbounds nuw %"class.std::_Hashtable.57", ptr %3, i32 0, i32 0
  %5 = getelementptr inbounds nuw %"class.std::_Hashtable.57", ptr %3, i32 0, i32 5
  store ptr %5, ptr %4, align 8, !tbaa !291
  %6 = getelementptr inbounds nuw %"class.std::_Hashtable.57", ptr %3, i32 0, i32 1
  store i64 1, ptr %6, align 8, !tbaa !293
  %7 = getelementptr inbounds nuw %"class.std::_Hashtable.57", ptr %3, i32 0, i32 2
  call void @_ZNSt8__detail15_Hash_node_baseC2Ev(ptr noundef nonnull align 8 dereferenceable(8) %7) #3
  %8 = getelementptr inbounds nuw %"class.std::_Hashtable.57", ptr %3, i32 0, i32 3
  store i64 0, ptr %8, align 8, !tbaa !294
  %9 = getelementptr inbounds nuw %"class.std::_Hashtable.57", ptr %3, i32 0, i32 4
  call void @_ZNSt8__detail20_Prime_rehash_policyC2Ef(ptr noundef nonnull align 8 dereferenceable(16) %9, float noundef 1.000000e+00) #3
  %10 = getelementptr inbounds nuw %"class.std::_Hashtable.57", ptr %3, i32 0, i32 5
  store ptr null, ptr %10, align 8, !tbaa !295
  ret void
}

; Function Attrs: inlinehint mustprogress nounwind uwtable
define linkonce_odr hidden void @_ZNSt13unordered_setIN4cvc58internal12NodeTemplateILb1EEESt4hashIS3_ESt8equal_toIS3_ESaIS3_EED2Ev(ptr noundef nonnull align 8 dereferenceable(56) %0) unnamed_addr #8 comdat align 2 {
  %2 = alloca ptr, align 8
  store ptr %0, ptr %2, align 8, !tbaa !122
  %3 = load ptr, ptr %2, align 8
  %4 = getelementptr inbounds nuw %"class.std::unordered_set.56", ptr %3, i32 0, i32 0
  call void @_ZNSt10_HashtableIN4cvc58internal12NodeTemplateILb1EEES3_SaIS3_ENSt8__detail9_IdentityESt8equal_toIS3_ESt4hashIS3_ENS5_18_Mod_range_hashingENS5_20_Default_ranged_hashENS5_20_Prime_rehash_policyENS5_17_Hashtable_traitsILb1ELb1ELb1EEEED2Ev(ptr noundef nonnull align 8 dereferenceable(56) %4) #3
  ret void
}

; Function Attrs: mustprogress nounwind uwtable
define linkonce_odr hidden void @_ZN4cvc58internal12NodeTemplateILb0EED2Ev(ptr noundef nonnull align 8 dereferenceable(8) %0) unnamed_addr #5 comdat align 2 {
  %2 = alloca ptr, align 8
  store ptr %0, ptr %2, align 8, !tbaa !3
  ret void
}

; Function Attrs: mustprogress uwtable
define hidden noundef zeroext i1 @_ZN4cvc58internal4expr20getVariablesInternalENS0_12NodeTemplateILb0EEERSt13unordered_setINS2_ILb1EEESt4hashIS5_ESt8equal_toIS5_ESaIS5_EERS4_IS3_S6_IS3_ES8_IS3_ESaIS3_EEb(ptr noundef %0, ptr noundef nonnull align 8 dereferenceable(56) %1, ptr noundef nonnull align 8 dereferenceable(56) %2, i1 noundef zeroext %3) #4 personality ptr @__gxx_personality_v0 {
  %5 = alloca ptr, align 8
  %6 = alloca ptr, align 8
  %7 = alloca ptr, align 8
  %8 = alloca i8, align 1
  %9 = alloca i8, align 1
  %10 = alloca %"class.cvc5::internal::NodeTemplate", align 8
  %11 = alloca ptr, align 8
  %12 = alloca i32, align 4
  store ptr %0, ptr %5, align 8, !tbaa !3
  store ptr %1, ptr %6, align 8, !tbaa !122
  store ptr %2, ptr %7, align 8, !tbaa !20
  %13 = zext i1 %3 to i8
  store i8 %13, ptr %8, align 1, !tbaa !8
  call void @llvm.lifetime.start.p0(i64 1, ptr %9) #3
  store i8 0, ptr %9, align 1, !tbaa !8
  call void @_ZN4cvc58internal12NodeTemplateILb0EEC2ERKS2_(ptr noundef nonnull align 8 dereferenceable(8) %10, ptr noundef nonnull align 8 dereferenceable(8) %0)
  %14 = load ptr, ptr %6, align 8, !tbaa !122
  %15 = load ptr, ptr %7, align 8, !tbaa !20
  %16 = load i8, ptr %8, align 1, !tbaa !8, !range !10, !noundef !11
  %17 = trunc i8 %16 to i1
  %18 = invoke noundef zeroext i1 @_ZN4cvc58internal4expr22checkVariablesInternalENS0_12NodeTemplateILb0EEERSt13unordered_setINS2_ILb1EEESt4hashIS5_ESt8equal_toIS5_ESaIS5_EERS4_IS3_S6_IS3_ES8_IS3_ESaIS3_EERbbb(ptr noundef %10, ptr noundef nonnull align 8 dereferenceable(56) %14, ptr noundef nonnull align 8 dereferenceable(56) %15, ptr noundef nonnull align 1 dereferenceable(1) %9, i1 noundef zeroext %17, i1 noundef zeroext false)
          to label %19 unwind label %20

19:                                               ; preds = %4
  call void @_ZN4cvc58internal12NodeTemplateILb0EED2Ev(ptr noundef nonnull align 8 dereferenceable(8) %10) #3
  call void @llvm.lifetime.end.p0(i64 1, ptr %9) #3
  ret i1 %18

20:                                               ; preds = %4
  %21 = landingpad { ptr, i32 }
          cleanup
  %22 = extractvalue { ptr, i32 } %21, 0
  store ptr %22, ptr %11, align 8
  %23 = extractvalue { ptr, i32 } %21, 1
  store i32 %23, ptr %12, align 4
  call void @_ZN4cvc58internal12NodeTemplateILb0EED2Ev(ptr noundef nonnull align 8 dereferenceable(8) %10) #3
  call void @llvm.lifetime.end.p0(i64 1, ptr %9) #3
  br label %24

24:                                               ; preds = %20
  %25 = load ptr, ptr %11, align 8
  %26 = load i32, ptr %12, align 4
  %27 = insertvalue { ptr, i32 } poison, ptr %25, 0
  %28 = insertvalue { ptr, i32 } %27, i32 %26, 1
  resume { ptr, i32 } %28
}

; Function Attrs: mustprogress nounwind uwtable
define linkonce_odr hidden void @_ZN4cvc58internal12NodeTemplateILb0EEC2ERKS2_(ptr noundef nonnull align 8 dereferenceable(8) %0, ptr noundef nonnull align 8 dereferenceable(8) %1) unnamed_addr #5 comdat align 2 {
  %3 = alloca ptr, align 8
  %4 = alloca ptr, align 8
  store ptr %0, ptr %3, align 8, !tbaa !3
  store ptr %1, ptr %4, align 8, !tbaa !3
  %5 = load ptr, ptr %3, align 8
  %6 = load ptr, ptr %4, align 8, !tbaa !3
  %7 = getelementptr inbounds nuw %"class.cvc5::internal::NodeTemplate", ptr %6, i32 0, i32 0
  %8 = load ptr, ptr %7, align 8, !tbaa !17
  %9 = getelementptr inbounds nuw %"class.cvc5::internal::NodeTemplate", ptr %5, i32 0, i32 0
  store ptr %8, ptr %9, align 8, !tbaa !17
  ret void
}

; Function Attrs: mustprogress nounwind uwtable
define linkonce_odr hidden void @_ZNSt13unordered_setIN4cvc58internal12NodeTemplateILb1EEESt4hashIS3_ESt8equal_toIS3_ESaIS3_EEC2Ev(ptr noundef nonnull align 8 dereferenceable(56) %0) unnamed_addr #5 comdat align 2 {
  %2 = alloca ptr, align 8
  store ptr %0, ptr %2, align 8, !tbaa !122
  %3 = load ptr, ptr %2, align 8
  %4 = getelementptr inbounds nuw %"class.std::unordered_set.56", ptr %3, i32 0, i32 0
  call void @_ZNSt10_HashtableIN4cvc58internal12NodeTemplateILb1EEES3_SaIS3_ENSt8__detail9_IdentityESt8equal_toIS3_ESt4hashIS3_ENS5_18_Mod_range_hashingENS5_20_Default_ranged_hashENS5_20_Prime_rehash_policyENS5_17_Hashtable_traitsILb1ELb1ELb1EEEEC2Ev(ptr noundef nonnull align 8 dereferenceable(56) %4) #3
  ret void
}

; Function Attrs: mustprogress uwtable
define hidden noundef zeroext i1 @_ZN4cvc58internal4expr21hasFreeVariablesScopeENS0_12NodeTemplateILb0EEERSt13unordered_setIS3_St4hashIS3_ESt8equal_toIS3_ESaIS3_EE(ptr noundef %0, ptr noundef nonnull align 8 dereferenceable(56) %1) #4 personality ptr @__gxx_personality_v0 {
  %3 = alloca ptr, align 8
  %4 = alloca ptr, align 8
  %5 = alloca %"class.std::unordered_set.56", align 8
  %6 = alloca %"class.cvc5::internal::NodeTemplate", align 8
  %7 = alloca ptr, align 8
  %8 = alloca i32, align 4
  store ptr %0, ptr %3, align 8, !tbaa !3
  store ptr %1, ptr %4, align 8, !tbaa !20
  call void @llvm.lifetime.start.p0(i64 56, ptr %5) #3
  call void @_ZNSt13unordered_setIN4cvc58internal12NodeTemplateILb1EEESt4hashIS3_ESt8equal_toIS3_ESaIS3_EEC2Ev(ptr noundef nonnull align 8 dereferenceable(56) %5) #3
  invoke void @_ZN4cvc58internal12NodeTemplateILb0EEC2ERKS2_(ptr noundef nonnull align 8 dereferenceable(8) %6, ptr noundef nonnull align 8 dereferenceable(8) %0)
          to label %9 unwind label %13

9:                                                ; preds = %2
  %10 = load ptr, ptr %4, align 8, !tbaa !20
  %11 = invoke noundef zeroext i1 @_ZN4cvc58internal4expr20getVariablesInternalENS0_12NodeTemplateILb0EEERSt13unordered_setINS2_ILb1EEESt4hashIS5_ESt8equal_toIS5_ESaIS5_EERS4_IS3_S6_IS3_ES8_IS3_ESaIS3_EEb(ptr noundef %6, ptr noundef nonnull align 8 dereferenceable(56) %5, ptr noundef nonnull align 8 dereferenceable(56) %10, i1 noundef zeroext false)
          to label %12 unwind label %17

12:                                               ; preds = %9
  call void @_ZN4cvc58internal12NodeTemplateILb0EED2Ev(ptr noundef nonnull align 8 dereferenceable(8) %6) #3
  call void @_ZNSt13unordered_setIN4cvc58internal12NodeTemplateILb1EEESt4hashIS3_ESt8equal_toIS3_ESaIS3_EED2Ev(ptr noundef nonnull align 8 dereferenceable(56) %5) #3
  call void @llvm.lifetime.end.p0(i64 56, ptr %5) #3
  ret i1 %11

13:                                               ; preds = %2
  %14 = landingpad { ptr, i32 }
          cleanup
  %15 = extractvalue { ptr, i32 } %14, 0
  store ptr %15, ptr %7, align 8
  %16 = extractvalue { ptr, i32 } %14, 1
  store i32 %16, ptr %8, align 4
  br label %21

17:                                               ; preds = %9
  %18 = landingpad { ptr, i32 }
          cleanup
  %19 = extractvalue { ptr, i32 } %18, 0
  store ptr %19, ptr %7, align 8
  %20 = extractvalue { ptr, i32 } %18, 1
  store i32 %20, ptr %8, align 4
  call void @_ZN4cvc58internal12NodeTemplateILb0EED2Ev(ptr noundef nonnull align 8 dereferenceable(8) %6) #3
  br label %21

21:                                               ; preds = %17, %13
  call void @_ZNSt13unordered_setIN4cvc58internal12NodeTemplateILb1EEESt4hashIS3_ESt8equal_toIS3_ESaIS3_EED2Ev(ptr noundef nonnull align 8 dereferenceable(56) %5) #3
  call void @llvm.lifetime.end.p0(i64 56, ptr %5) #3
  br label %22

22:                                               ; preds = %21
  %23 = load ptr, ptr %7, align 8
  %24 = load i32, ptr %8, align 4
  %25 = insertvalue { ptr, i32 } poison, ptr %23, 0
  %26 = insertvalue { ptr, i32 } %25, i32 %24, 1
  resume { ptr, i32 } %26
}