; Function Attrs: mustprogress uwtable
define hidden noundef zeroext i1 @_ZN4cvc58internal4expr21hasFreeVariablesScopeENS0_12NodeTemplateILb0EEERSt13unordered_setIS3_St4hashIS3_ESt8equal_toIS3_ESaIS3_EE(ptr noundef readonly captures(none) %0, ptr noundef nonnull align 8 dereferenceable(56) %1) local_unnamed_addr #3 personality ptr @__gxx_personality_v0 {
  %3 = alloca i8, align 1
  %4 = alloca %"class.cvc5::internal::NodeTemplate", align 8
  %5 = alloca %"class.std::unordered_set.56", align 8
  call void @llvm.lifetime.start.p0(i64 56, ptr nonnull %5) #21
  %6 = getelementptr inbounds nuw i8, ptr %5, i64 48
  store ptr %6, ptr %5, align 8, !tbaa !195
  %7 = getelementptr inbounds nuw i8, ptr %5, i64 8
  store i64 1, ptr %7, align 8, !tbaa !196
  %8 = getelementptr inbounds nuw i8, ptr %5, i64 16
  %9 = getelementptr inbounds nuw i8, ptr %5, i64 32
  call void @llvm.memset.p0.i64(ptr noundef nonnull align 8 dereferenceable(16) %8, i8 0, i64 16, i1 false)
  store float 1.000000e+00, ptr %9, align 8, !tbaa !18
  %10 = getelementptr inbounds nuw i8, ptr %5, i64 40
  call void @llvm.memset.p0.i64(ptr noundef nonnull align 8 dereferenceable(16) %10, i8 0, i64 16, i1 false)
  %11 = load ptr, ptr %0, align 8, !tbaa !3
  call void @llvm.lifetime.start.p0(i64 8, ptr nonnull %4)
  call void @llvm.lifetime.start.p0(i64 1, ptr nonnull %3) #21
  store ptr %11, ptr %4, align 8, !tbaa !3
  %12 = invoke noundef zeroext i1 @_ZN4cvc58internal4expr22checkVariablesInternalENS0_12NodeTemplateILb0EEERSt13unordered_setINS2_ILb1EEESt4hashIS5_ESt8equal_toIS5_ESaIS5_EERS4_IS3_S6_IS3_ES8_IS3_ESaIS3_EERbbb(ptr noundef nonnull %4, ptr noundef nonnull align 8 dereferenceable(56) %5, ptr noundef nonnull align 8 dereferenceable(56) %1, ptr noundef nonnull align 1 dereferenceable(1) %3, i1 noundef zeroext false, i1 noundef zeroext false)
          to label %13 unwind label %38

13:                                               ; preds = %2
  call void @llvm.lifetime.end.p0(i64 1, ptr nonnull %3) #21
  call void @llvm.lifetime.end.p0(i64 8, ptr nonnull %4)
  %14 = load ptr, ptr %8, align 8, !tbaa !197
  %.not5.i.i.i = icmp eq ptr %14, null
  br i1 %.not5.i.i.i, label %_ZNSt10_HashtableIN4cvc58internal12NodeTemplateILb1EEES3_SaIS3_ENSt8__detail9_IdentityESt8equal_toIS3_ESt4hashIS3_ENS5_18_Mod_range_hashingENS5_20_Default_ranged_hashENS5_20_Prime_rehash_policyENS5_17_Hashtable_traitsILb1ELb1ELb1EEEE5clearEv.exit.i, label %.lr.ph.i.i.i

.lr.ph.i.i.i:                                     ; preds = %13, %_ZNSt8__detail16_Hashtable_allocISaINS_10_Hash_nodeIN4cvc58internal12NodeTemplateILb1EEELb1EEEEE18_M_deallocate_nodeEPS6_.exit.i.i.i
  %.06.i.i.i = phi ptr [ %15, %_ZNSt8__detail16_Hashtable_allocISaINS_10_Hash_nodeIN4cvc58internal12NodeTemplateILb1EEELb1EEEEE18_M_deallocate_nodeEPS6_.exit.i.i.i ], [ %14, %13 ]
  %15 = load ptr, ptr %.06.i.i.i, align 8, !tbaa !34
  %16 = getelementptr inbounds nuw i8, ptr %.06.i.i.i, i64 8
  %17 = load ptr, ptr %16, align 8, !tbaa !48
  %18 = load i64, ptr %17, align 8
  %19 = and i64 %18, 1152920405095219200
  %.not.i.i.i.i.i.i.i.i = icmp eq i64 %19, 1152920405095219200
  br i1 %.not.i.i.i.i.i.i.i.i, label %_ZNSt8__detail16_Hashtable_allocISaINS_10_Hash_nodeIN4cvc58internal12NodeTemplateILb1EEELb1EEEEE18_M_deallocate_nodeEPS6_.exit.i.i.i, label %20, !prof !24

20:                                               ; preds = %.lr.ph.i.i.i
  %21 = add i64 %18, 1152920405095219200
  %22 = and i64 %21, 1152920405095219200
  %23 = and i64 %18, -1152920405095219201
  %24 = or disjoint i64 %22, %23
  store i64 %24, ptr %17, align 8
  %25 = icmp eq i64 %22, 0
  br i1 %25, label %26, label %_ZNSt8__detail16_Hashtable_allocISaINS_10_Hash_nodeIN4cvc58internal12NodeTemplateILb1EEELb1EEEEE18_M_deallocate_nodeEPS6_.exit.i.i.i, !prof !24

26:                                               ; preds = %20
  invoke void @_ZN4cvc58internal4expr9NodeValue15markForDeletionEv(ptr noundef nonnull align 8 dereferenceable(24) %17)
          to label %_ZNSt8__detail16_Hashtable_allocISaINS_10_Hash_nodeIN4cvc58internal12NodeTemplateILb1EEELb1EEEEE18_M_deallocate_nodeEPS6_.exit.i.i.i unwind label %27

27:                                               ; preds = %26
  %28 = landingpad { ptr, i32 }
          catch ptr null
  %29 = extractvalue { ptr, i32 } %28, 0
  call void @__clang_call_terminate(ptr %29) #23
  unreachable

_ZNSt8__detail16_Hashtable_allocISaINS_10_Hash_nodeIN4cvc58internal12NodeTemplateILb1EEELb1EEEEE18_M_deallocate_nodeEPS6_.exit.i.i.i: ; preds = %26, %20, %.lr.ph.i.i.i
  call void @_ZdlPvm(ptr noundef nonnull %.06.i.i.i, i64 noundef 24) #24
  %.not.i.i.i = icmp eq ptr %15, null
  br i1 %.not.i.i.i, label %_ZNSt10_HashtableIN4cvc58internal12NodeTemplateILb1EEES3_SaIS3_ENSt8__detail9_IdentityESt8equal_toIS3_ESt4hashIS3_ENS5_18_Mod_range_hashingENS5_20_Default_ranged_hashENS5_20_Prime_rehash_policyENS5_17_Hashtable_traitsILb1ELb1ELb1EEEE5clearEv.exit.i, label %.lr.ph.i.i.i, !llvm.loop !198

_ZNSt10_HashtableIN4cvc58internal12NodeTemplateILb1EEES3_SaIS3_ENSt8__detail9_IdentityESt8equal_toIS3_ESt4hashIS3_ENS5_18_Mod_range_hashingENS5_20_Default_ranged_hashENS5_20_Prime_rehash_policyENS5_17_Hashtable_traitsILb1ELb1ELb1EEEE5clearEv.exit.i: ; preds = %_ZNSt8__detail16_Hashtable_allocISaINS_10_Hash_nodeIN4cvc58internal12NodeTemplateILb1EEELb1EEEEE18_M_deallocate_nodeEPS6_.exit.i.i.i, %13
  %30 = load ptr, ptr %5, align 8, !tbaa !195
  %31 = load i64, ptr %7, align 8, !tbaa !196
  %32 = shl i64 %31, 3
  call void @llvm.memset.p0.i64(ptr align 8 %30, i8 0, i64 %32, i1 false)
  call void @llvm.memset.p0.i64(ptr noundef nonnull align 8 dereferenceable(16) %8, i8 0, i64 16, i1 false)
  %33 = load ptr, ptr %5, align 8, !tbaa !195
  %34 = icmp eq ptr %33, %6
  br i1 %34, label %_ZNSt10_HashtableIN4cvc58internal12NodeTemplateILb1EEES3_SaIS3_ENSt8__detail9_IdentityESt8equal_toIS3_ESt4hashIS3_ENS5_18_Mod_range_hashingENS5_20_Default_ranged_hashENS5_20_Prime_rehash_policyENS5_17_Hashtable_traitsILb1ELb1ELb1EEEED2Ev.exit, label %35

35:                                               ; preds = %_ZNSt10_HashtableIN4cvc58internal12NodeTemplateILb1EEES3_SaIS3_ENSt8__detail9_IdentityESt8equal_toIS3_ESt4hashIS3_ENS5_18_Mod_range_hashingENS5_20_Default_ranged_hashENS5_20_Prime_rehash_policyENS5_17_Hashtable_traitsILb1ELb1ELb1EEEE5clearEv.exit.i
  %36 = load i64, ptr %7, align 8, !tbaa !196
  %37 = shl i64 %36, 3
  call void @_ZdlPvm(ptr noundef %33, i64 noundef %37) #24
  br label %_ZNSt10_HashtableIN4cvc58internal12NodeTemplateILb1EEES3_SaIS3_ENSt8__detail9_IdentityESt8equal_toIS3_ESt4hashIS3_ENS5_18_Mod_range_hashingENS5_20_Default_ranged_hashENS5_20_Prime_rehash_policyENS5_17_Hashtable_traitsILb1ELb1ELb1EEEED2Ev.exit

_ZNSt10_HashtableIN4cvc58internal12NodeTemplateILb1EEES3_SaIS3_ENSt8__detail9_IdentityESt8equal_toIS3_ESt4hashIS3_ENS5_18_Mod_range_hashingENS5_20_Default_ranged_hashENS5_20_Prime_rehash_policyENS5_17_Hashtable_traitsILb1ELb1ELb1EEEED2Ev.exit: ; preds = %_ZNSt10_HashtableIN4cvc58internal12NodeTemplateILb1EEES3_SaIS3_ENSt8__detail9_IdentityESt8equal_toIS3_ESt4hashIS3_ENS5_18_Mod_range_hashingENS5_20_Default_ranged_hashENS5_20_Prime_rehash_policyENS5_17_Hashtable_traitsILb1ELb1ELb1EEEE5clearEv.exit.i, %35
  call void @llvm.lifetime.end.p0(i64 56, ptr nonnull %5) #21
  ret i1 %12

38:                                               ; preds = %2
  %39 = landingpad { ptr, i32 }
          cleanup
  call void @_ZNSt10_HashtableIN4cvc58internal12NodeTemplateILb1EEES3_SaIS3_ENSt8__detail9_IdentityESt8equal_toIS3_ESt4hashIS3_ENS5_18_Mod_range_hashingENS5_20_Default_ranged_hashENS5_20_Prime_rehash_policyENS5_17_Hashtable_traitsILb1ELb1ELb1EEEED2Ev(ptr noundef nonnull align 8 dereferenceable(56) %5) #21
  call void @llvm.lifetime.end.p0(i64 56, ptr nonnull %5) #21
  resume { ptr, i32 } %39
}